; Function Attrs: mustprogress uwtable
define void @_ZNK5arrow6Status4WarnEv(ptr noundef nonnull readonly align 8 captures(none) dereferenceable(8) %0) local_unnamed_addr #3 align 2 personality ptr @__gxx_personality_v0 {
  %2 = alloca %"class.arrow::util::ArrowLog", align 8
  %3 = alloca %"class.std::__cxx11::basic_string", align 8
  call void @llvm.lifetime.start.p0(i64 24, ptr nonnull %2) #19
  call void @_ZN5arrow4util8ArrowLogC1EPKciNS0_13ArrowLogLevelE(ptr noundef nonnull align 8 dereferenceable(17) %2, ptr noundef nonnull @.str, i32 noundef 165, i32 noundef 1)
  call void @llvm.lifetime.start.p0(i64 32, ptr nonnull %3) #19
  invoke void @_ZNK5arrow6Status8ToStringB5cxx11Ev(ptr dead_on_unwind nonnull writable sret(%"class.std::__cxx11::basic_string") align 8 %3, ptr noundef nonnull align 8 dereferenceable(8) %0)
          to label %4 unwind label %26

4:                                                ; preds = %1
  %5 = load ptr, ptr %2, align 8, !tbaa !22
  %6 = getelementptr inbounds nuw i8, ptr %5, i64 16
  %7 = load ptr, ptr %6, align 8
  %8 = invoke noundef zeroext i1 %7(ptr noundef nonnull align 8 dereferenceable(8) %2)
          to label %.noexc unwind label %28

.noexc:                                           ; preds = %4
  br i1 %8, label %9, label %_ZN5arrow4util12ArrowLogBaselsINSt7__cxx1112basic_stringIcSt11char_traitsIcESaIcEEEEERS1_RKT_.exit

9:                                                ; preds = %.noexc
  %10 = load ptr, ptr %2, align 8, !tbaa !22
  %11 = getelementptr inbounds nuw i8, ptr %10, i64 24
  %12 = load ptr, ptr %11, align 8
  %13 = invoke noundef nonnull align 8 dereferenceable(8) ptr %12(ptr noundef nonnull align 8 dereferenceable(8) %2)
          to label %.noexc4 unwind label %28

.noexc4:                                          ; preds = %9
  %14 = load ptr, ptr %3, align 8, !tbaa !9
  %15 = getelementptr inbounds nuw i8, ptr %3, i64 8
  %16 = load i64, ptr %15, align 8, !tbaa !12
  %17 = invoke noundef nonnull align 8 dereferenceable(8) ptr @_ZSt16__ostream_insertIcSt11char_traitsIcEERSt13basic_ostreamIT_T0_ES6_PKS3_l(ptr noundef nonnull align 8 dereferenceable(8) %13, ptr noundef %14, i64 noundef %16)
          to label %_ZN5arrow4util12ArrowLogBaselsINSt7__cxx1112basic_stringIcSt11char_traitsIcESaIcEEEEERS1_RKT_.exit unwind label %28

_ZN5arrow4util12ArrowLogBaselsINSt7__cxx1112basic_stringIcSt11char_traitsIcESaIcEEEEERS1_RKT_.exit: ; preds = %.noexc, %.noexc4
  %18 = load ptr, ptr %3, align 8, !tbaa !9
  %19 = getelementptr inbounds nuw i8, ptr %3, i64 16
  %20 = icmp eq ptr %18, %19
  br i1 %20, label %_ZNKSt7__cxx1112basic_stringIcSt11char_traitsIcESaIcEE11_M_is_localEv.exit.thread.i.i, label %_ZNKSt7__cxx1112basic_stringIcSt11char_traitsIcESaIcEE11_M_is_localEv.exit.i.i

_ZNKSt7__cxx1112basic_stringIcSt11char_traitsIcESaIcEE11_M_is_localEv.exit.thread.i.i: ; preds = %_ZN5arrow4util12ArrowLogBaselsINSt7__cxx1112basic_stringIcSt11char_traitsIcESaIcEEEEERS1_RKT_.exit
  %21 = getelementptr inbounds nuw i8, ptr %3, i64 8
  %22 = load i64, ptr %21, align 8, !tbaa !12
  %23 = icmp ult i64 %22, 16
  call void @llvm.assume(i1 %23)
  br label %_ZNSt7__cxx1112basic_stringIcSt11char_traitsIcESaIcEED2Ev.exit

_ZNKSt7__cxx1112basic_stringIcSt11char_traitsIcESaIcEE11_M_is_localEv.exit.i.i: ; preds = %_ZN5arrow4util12ArrowLogBaselsINSt7__cxx1112basic_stringIcSt11char_traitsIcESaIcEEEEERS1_RKT_.exit
  %24 = load i64, ptr %19, align 8, !tbaa !14
  %25 = add i64 %24, 1
  call void @_ZdlPvm(ptr noundef %18, i64 noundef %25) #20
  br label %_ZNSt7__cxx1112basic_stringIcSt11char_traitsIcESaIcEED2Ev.exit

_ZNSt7__cxx1112basic_stringIcSt11char_traitsIcESaIcEED2Ev.exit: ; preds = %_ZNKSt7__cxx1112basic_stringIcSt11char_traitsIcESaIcEE11_M_is_localEv.exit.thread.i.i, %_ZNKSt7__cxx1112basic_stringIcSt11char_traitsIcESaIcEE11_M_is_localEv.exit.i.i
  call void @llvm.lifetime.end.p0(i64 32, ptr nonnull %3) #19
  call void @_ZN5arrow4util8ArrowLogD1Ev(ptr noundef nonnull align 8 dereferenceable(17) %2) #19
  call void @llvm.lifetime.end.p0(i64 24, ptr nonnull %2) #19
  ret void

26:                                               ; preds = %1
  %27 = landingpad { ptr, i32 }
          cleanup
  br label %_ZNSt7__cxx1112basic_stringIcSt11char_traitsIcESaIcEED2Ev.exit8

28:                                               ; preds = %.noexc4, %9, %4
  %29 = landingpad { ptr, i32 }
          cleanup
  %30 = load ptr, ptr %3, align 8, !tbaa !9
  %31 = getelementptr inbounds nuw i8, ptr %3, i64 16
  %32 = icmp eq ptr %30, %31
  br i1 %32, label %_ZNKSt7__cxx1112basic_stringIcSt11char_traitsIcESaIcEE11_M_is_localEv.exit.thread.i.i7, label %_ZNKSt7__cxx1112basic_stringIcSt11char_traitsIcESaIcEE11_M_is_localEv.exit.i.i6

_ZNKSt7__cxx1112basic_stringIcSt11char_traitsIcESaIcEE11_M_is_localEv.exit.thread.i.i7: ; preds = %28
  %33 = getelementptr inbounds nuw i8, ptr %3, i64 8
  %34 = load i64, ptr %33, align 8, !tbaa !12
  %35 = icmp ult i64 %34, 16
  call void @llvm.assume(i1 %35)
  br label %_ZNSt7__cxx1112basic_stringIcSt11char_traitsIcESaIcEED2Ev.exit8

_ZNKSt7__cxx1112basic_stringIcSt11char_traitsIcESaIcEE11_M_is_localEv.exit.i.i6: ; preds = %28
  %36 = load i64, ptr %31, align 8, !tbaa !14
  %37 = add i64 %36, 1
  call void @_ZdlPvm(ptr noundef %30, i64 noundef %37) #20
  br label %_ZNSt7__cxx1112basic_stringIcSt11char_traitsIcESaIcEED2Ev.exit8

_ZNSt7__cxx1112basic_stringIcSt11char_traitsIcESaIcEED2Ev.exit8: ; preds = %_ZNKSt7__cxx1112basic_stringIcSt11char_traitsIcESaIcEE11_M_is_localEv.exit.i.i6, %_ZNKSt7__cxx1112basic_stringIcSt11char_traitsIcESaIcEE11_M_is_localEv.exit.thread.i.i7, %26
  %.pn = phi { ptr, i32 } [ %27, %26 ], [ %29, %_ZNKSt7__cxx1112basic_stringIcSt11char_traitsIcESaIcEE11_M_is_localEv.exit.thread.i.i7 ], [ %29, %_ZNKSt7__cxx1112basic_stringIcSt11char_traitsIcESaIcEE11_M_is_localEv.exit.i.i6 ]
  call void @llvm.lifetime.end.p0(i64 32, ptr nonnull %3) #19
  call void @_ZN5arrow4util8ArrowLogD1Ev(ptr noundef nonnull align 8 dereferenceable(17) %2) #19
  call void @llvm.lifetime.end.p0(i64 24, ptr nonnull %2) #19
  resume { ptr, i32 } %.pn
}